(lp0
(I22
Vbf87e2031fe88531
p1
tp2
a(I23
Vd98d703b3c0b8fa4
p3
tp4
a(I24
Vad6d1905e81d1ceb
p5
tp6
a(I25
V3399ccc62973d98c
p7
tp8
a(I26
V890b76de8e98a726
p9
tp10
a(I27
V21e19cb9f4797291
p11
tp12
a(I28
Vcbd88a839ec128fb
p13
tp14
a(I29
Va1a5c6d3374b4336
p15
tp16
a(I30
V192ba3b623376663
p17
tp18
a(I31
V8937a775b1993149
p19
tp20
a(I32
Vf5523181c7fac788
p21
tp22
a(I33
Vdf2b0bf284cd1836
p23
tp24
a(I34
V8b13a96c5299ece5
p25
tp26
a(I35
V5f83154c93e12dab
p27
tp28
a(I36
V07dfa9b179301e46
p29
tp30
a(I37
V1dd363261ccba371
p31
tp32
a(I39
V87d72363c8b2b698
p33
tp34
a(I40
V63670db3270d4759
p35
tp36
a(I41
V79618bad254fd191
p37
tp38
a(I42
V930d8df98373c781
p39
tp40
a(I43
V01c47cd7f016f4f8
p41
tp42
a(I44
Vb7075ec115f1132d
p43
tp44
a(I45
V690d371da5376931
p45
tp46
a(I46
V7f1519e4a3b14666
p47
tp48
a(I47
V2f5469e55a794991
p49
tp50
a(I48
Vc39b9f6099961966
p51
tp52
a(I49
V09bc71633619f969
p53
tp54
a(I50
V7110e4db8ed8f6a1
p55
tp56
a(I51
V7f81c38462b89cf9
p57
tp58
a(I52
V77a82adc0526dd9a
p59
tp60
a(I53
V77f2810cf2b52cd1
p61
tp62
a(I54
V651f91c7bb312f04
p63
tp64
a(I55
Vb99b4f67711082a7
p65
tp66
a(I56
V437c006e7f805af7
p67
tp68
a(I57
V4f53b59669b4482d
p69
tp70
a(I58
Ve19d7a5383e20be8
p71
tp72
a(I59
V3334c8db4ecc98da
p73
tp74
a(I60
V57dc89032b336b4d
p75
tp76
a(I61
V035bb61dbea88c56
p77
tp78
a(I62
Ve1b89aede0135e34
p79
tp80
a(I63
V9fde4d4e840cea19
p81
tp82
a(I64
Vd51719d8c75b2561
p83
tp84
a(I65
V1333dd9753292393
p85
tp86
a(I66
Vcd331375e3096783
p87
tp88
a(I67
Vfb5e5c11152b07e2
p89
tp90
a(I68
V1f05697c54878b9b
p91
tp92
a(I69
V2bbddd882ac320f5
p93
tp94
a(I70
V07e56cc6c8e906bb
p95
tp96
a(I71
V2ba4d35c905b7c53
p97
tp98
a(I72
V51f7a34e2070fc2d
p99
tp100
a(I73
Va5259e1ea3e3ac1c
p101
tp102
a(I74
V8371b1d85f86e907
p103
tp104
a(I75
V739b68b784a0d959
p105
tp106
a(I76
V5571a11ee12c5be6
p107
tp108
a(I77
Vd59f03013bc95b74
p109
tp110
a(I78
Vdd987326ad8d0571
p111
tp112
a(I79
V35a9ceb10d46f11e
p113
tp114
a(I80
V7564e13415b1b0fb
p115
tp116
a(I81
V13df0b64903de51e
p117
tp118
a(I82
V4d61d9b4b81b1ac7
p119
tp120
a(I83
V49ee7812acbb17a1
p121
tp122
a(I84
V7d076d701ce3d330
p123
tp124
a(I85
Vcb19691fd32f04c9
p125
tp126
a(I86
V0167fbfb841829ec
p127
tp128
a(I87
V059293ec79499ceb
p129
tp130
a(I88
V996c4e1a32d3f269
p131
tp132
a(I89
Vd7b70bc2970b294c
p133
tp134
a(I90
V0383f8dc6eacdc32
p135
tp136
a(I91
Ved43c9ec03d87326
p137
tp138
a(I92
V7d1d83e30bc493e1
p139
tp140
a(I93
Vd16b613ef814f740
p141
tp142
a(I94
V978dc371199bb119
p143
tp144
a(I95
V55e53972cc0bc19b
p145
tp146
a(I96
V8d8661739b9a99cc
p147
tp148
a(I97
V45f3f8269ba4266c
p149
tp150
a(I98
Vcda55b1b112e1697
p151
tp152
a(I99
V9b9347663ce4ccb0
p153
tp154
a(I100
Vb5065afa4e0df483
p155
tp156
a(I101
V9f2923e55c3389c9
p157
tp158
a(I102
V4b37665297cc3932
p159
tp160
a(I103
Vd5f91d0b8903b956
p161
tp162
a(I104
V759bf5160237c199
p163
tp164
a(I105
Vdf2a010f1471bdf8
p165
tp166
a(I106
Vb7b3cc494989590f
p167
tp168
a(I107
V35abe845a5a5ca35
p169
tp170
a(I108
V81be7e3c96874c89
p171
tp172
a(I109
Vd79d3949cb484965
p173
tp174
a(I110
Va7594c329ced59a8
p175
tp176
a(I111
V3799c363ce8d6909
p177
tp178
a(I112
Vad5238a5833d69b5
p179
tp180
a(I113
Vd7d921293627c83b
p181
tp182
a(I114
V31a4ea8b94d02f7b
p183
tp184
a(I115
V5b92955ac52da52d
p185
tp186
a(I116
V2158db261f7770c6
p187
tp188
a(I117
V5729b55a2b5831b6
p189
tp190
a(I118
V0733ac89d9a6a65b
p191
tp192
a(I119
Vf7e7c46c62333013
p193
tp194
a(I120
Vd7714d99a12fb821
p195
tp196
a(I121
V51cc2cf3e31c78cc
p197
tp198
a(I122
V67d2932d69b1658c
p199
tp200
a(I123
V67a5e84979b84993
p201
tp202
a(I124
Vb562ceb023e59a3c
p203
tp204
a(I125
V01e13f098d7ae9f8
p205
tp206
a(I126
V2b1192ede2f61dc1
p207
tp208
a(I127
V6b859a9d74622c9b
p209
tp210
a(I128
Vbf354dc283e1612d
p211
tp212
a(I129
V0b7606c5bfd84f81
p213
tp214
a(I130
V8b963064b79361bd
p215
tp216
a(I131
Vb5865af84e0cf493
p217
tp218
a(I132
Vfb2582930ff064d9
p219
tp220
a(I133
V3795ad28d2c9c378
p221
tp222
a(I134
V358366cc4d99e738
p223
tp224
a(I135
V27ab35a84b5aa978
p225
tp226
a(I136
V9f857a7624a6d941
p227
tp228
a(I137
Va9ad6cd6d253036c
p229
tp230
a(I138
Vcb251b612786497f
p231
tp232
a(I139
V9f1943e1a452fcb8
p233
tp234
a(I140
Va196bc6cf6f2c809
p235
tp236
a(I141
Va313e0bd431a58f7
p237
tp238
a(I142
V67662b199bb178a4
p239
tp240
a(I143
Vcf1ad25e6aea3822
p241
tp242
a(I144
V3f625a1ae23a837a
p243
tp244
a(I145
V85a44451e933fdf8
p245
tp246
a(I146
V3d06e2f40a59fb23
p247
tp248
a(I147
Vd5e199d66319fa80
p249
tp250
a(I148
V6ddf28014293cdb7
p251
tp252
a(I149
V898e66f816b18d6d
p253
tp254
a(I150
V1b5eac7c7031693a
p255
tp256
a(I151
V978a53f35335251a
p257
tp258
a(I152
V01cb9c5a47077ee3
p259
tp260
a(I153
Vafa1825f38e12379
p261
tp262
a(I154
Va5c3691c33369bc9
p263
tp264
a(I155
V5b025fd1c9a5e42d
p265
tp266
a(I156
Vfd8778e093d96230
p267
tp268
a(I157
V2b035ce7f608a17e
p269
tp270
a(I158
Ve1a2e3765e71260b
p271
tp272
a(I159
Vddb31446b2986cdc
p273
tp274
a(I160
V794836e5bc1633b1
p275
tp276
a(I161
V1f0c28ccd2d3a7e9
p277
tp278
a(I162
V738b857d0b527613
p279
tp280
a(I163
V115b8b4b927bc3c9
p281
tp282
a(I164
V7f898522677d8649
p283
tp284
a(I165
Vd5310303f14e3c7f
p285
tp286
a(I166
Vdd1701e2e95d095d
p287
tp288
a(I167
V8759481876b273f9
p289
tp290
a(I168
Vc7b93acd082712f3
p291
tp292
a(I169
V6f1d932372d96d10
p293
tp294
a(I170
Vc30536cf9cc9987c
p295
tp296
a(I171
Va16cb4cad41656bb
p297
tp298
a(I172
V4779707e7e434914
p299
tp300
a(I173
Vcd66339b9988b332
p301
tp302
a(I174
V01d95aba8347b9c7
p303
tp304
a(I175
V27276bcc56693991
p305
tp306
a(I176
Vfdcc8f1818a32747
p307
tp308
a(I177
Vfdf003017ef6a18c
p309
tp310
a(I178
V7dd7a209f1a03c33
p311
tp312
a.